target datalayout = "e-m:e-p270:32:32-p271:32:32-p272:64:64-i64:64-i128:128-f80:128-n8:16:32:64-S128"
target triple = "x86_64-pc-linux-gnu"

%class.ext_numeral = type { i32, %class.rational }
%class.rational = type { %class.mpq }
%class.mpq = type { %class.mpz, %class.mpz }
%class.mpz = type { i32, i8, ptr }
%class.old_interval = type { ptr, %class.ext_numeral, %class.ext_numeral, i8, i8, ptr, ptr }
%class.scoped_dependency_manager = type { [8 x i8], %"class.scoped_dependency_manager<void *>::config::allocator", %class.dependency_manager }
%"class.scoped_dependency_manager<void *>::config::allocator" = type { %class.region }
%class.region = type { ptr, ptr, ptr, ptr, ptr }
%class.dependency_manager = type { ptr, ptr, %class.ptr_vector }
%class.ptr_vector = type { %class.vector }
%class.vector = type { ptr }
%"struct.dependency_manager<scoped_dependency_manager<void *>::config>::join" = type { %"class.dependency_manager<scoped_dependency_manager<void *>::config>::dependency", [2 x ptr] }
%"class.dependency_manager<scoped_dependency_manager<void *>::config>::dependency" = type { i32 }

; Function Attrs: mustprogress nounwind uwtable
define linkonce_odr hidden void @_ZN18dependency_managerIN25scoped_dependency_managerIPvE6configEE10dependencyC2Eb(ptr noundef nonnull align 4 dereferenceable(4) %0, i1 noundef zeroext %1) unnamed_addr #5 comdat align 2 {
  %3 = alloca ptr, align 8
  %4 = alloca i8, align 1
  store ptr %0, ptr %3, align 8, !tbaa !41
  %5 = zext i1 %1 to i8
  store i8 %5, ptr %4, align 1, !tbaa !38
  %6 = load ptr, ptr %3, align 8
  %7 = load i32, ptr %6, align 4
  %8 = and i32 %7, -1073741824
  %9 = or i32 %8, 0
  store i32 %9, ptr %6, align 4
  %10 = load i32, ptr %6, align 4
  %11 = and i32 %10, -1073741825
  %12 = or i32 %11, 0
  store i32 %12, ptr %6, align 4
  %13 = load i8, ptr %4, align 1, !tbaa !38, !range !39, !noundef !40
  %14 = trunc i8 %13 to i1
  %15 = zext i1 %14 to i32
  %16 = load i32, ptr %6, align 4
  %17 = and i32 %15, 1
  %18 = shl i32 %17, 31
  %19 = and i32 %16, 2147483647
  %20 = or i32 %19, %18
  store i32 %20, ptr %6, align 4
  ret void
}

; Function Attrs: mustprogress uwtable
define linkonce_odr hidden void @_ZN18dependency_managerIN25scoped_dependency_managerIPvE6configEE4joinC2EPNS4_10dependencyES7_(ptr noundef nonnull align 8 dereferenceable(24) %0, ptr noundef %1, ptr noundef %2) unnamed_addr #4 comdat align 2 {
  %4 = alloca ptr, align 8
  %5 = alloca ptr, align 8
  %6 = alloca ptr, align 8
  store ptr %0, ptr %4, align 8, !tbaa !95
  store ptr %1, ptr %5, align 8, !tbaa !41
  store ptr %2, ptr %6, align 8, !tbaa !41
  %7 = load ptr, ptr %4, align 8
  call void @_ZN18dependency_managerIN25scoped_dependency_managerIPvE6configEE10dependencyC2Eb(ptr noundef nonnull align 4 dereferenceable(4) %7, i1 noundef zeroext false)
  %8 = load ptr, ptr %5, align 8, !tbaa !41
  %9 = getelementptr inbounds nuw %"struct.dependency_manager<scoped_dependency_manager<void *>::config>::join", ptr %7, i32 0, i32 1
  %10 = getelementptr inbounds [2 x ptr], ptr %9, i64 0, i64 0
  store ptr %8, ptr %10, align 8, !tbaa !41
  %11 = load ptr, ptr %6, align 8, !tbaa !41
  %12 = getelementptr inbounds nuw %"struct.dependency_manager<scoped_dependency_manager<void *>::config>::join", ptr %7, i32 0, i32 1
  %13 = getelementptr inbounds [2 x ptr], ptr %12, i64 0, i64 1
  store ptr %11, ptr %13, align 8, !tbaa !41
  ret void
}

; Function Attrs: mustprogress nounwind uwtable
define linkonce_odr hidden void @_ZN18dependency_managerIN25scoped_dependency_managerIPvE6configEE7inc_refEPNS4_10dependencyE(ptr noundef nonnull align 8 dereferenceable(24) %0, ptr noundef %1) #5 comdat align 2 {
  %3 = alloca ptr, align 8
  %4 = alloca ptr, align 8
  store ptr %0, ptr %3, align 8, !tbaa !86
  store ptr %1, ptr %4, align 8, !tbaa !41
  %5 = load ptr, ptr %4, align 8, !tbaa !41
  %6 = icmp ne ptr %5, null
  br i1 %6, label %7, label %16

7:                                                ; preds = %2
  %8 = load ptr, ptr %4, align 8, !tbaa !41
  %9 = load i32, ptr %8, align 4
  %10 = and i32 %9, 1073741823
  %11 = add i32 %10, 1
  %12 = load i32, ptr %8, align 4
  %13 = and i32 %11, 1073741823
  %14 = and i32 %12, -1073741824
  %15 = or i32 %14, %13
  store i32 %15, ptr %8, align 4
  br label %16

16:                                               ; preds = %7, %2
  ret void
}

; Function Attrs: mustprogress uwtable
define linkonce_odr hidden noundef ptr @_ZN25scoped_dependency_managerIPvE6config9allocator8allocateEm(ptr noundef nonnull align 8 dereferenceable(40) %0, i64 noundef %1) #4 comdat align 2 {
  %3 = alloca ptr, align 8
  %4 = alloca i64, align 8
  store ptr %0, ptr %3, align 8, !tbaa !94
  store i64 %1, ptr %4, align 8, !tbaa !81
  %5 = load ptr, ptr %3, align 8
  %6 = getelementptr inbounds nuw %"class.scoped_dependency_manager<void *>::config::allocator", ptr %5, i32 0, i32 0
  %7 = load i64, ptr %4, align 8, !tbaa !81
  %8 = call noundef ptr @_ZN6region8allocateEm(ptr noundef nonnull align 8 dereferenceable(40) %6, i64 noundef %7)
  ret ptr %8
}

; Function Attrs: mustprogress uwtable
define linkonce_odr hidden noundef ptr @_ZN18dependency_managerIN25scoped_dependency_managerIPvE6configEE7mk_joinEPNS4_10dependencyES6_(ptr noundef nonnull align 8 dereferenceable(24) %0, ptr noundef %1, ptr noundef %2) #4 comdat align 2 {
  %4 = alloca ptr, align 8
  %5 = alloca ptr, align 8
  %6 = alloca ptr, align 8
  %7 = alloca ptr, align 8
  %8 = alloca ptr, align 8
  store ptr %0, ptr %5, align 8, !tbaa !86
  store ptr %1, ptr %6, align 8, !tbaa !41
  store ptr %2, ptr %7, align 8, !tbaa !41
  %9 = load ptr, ptr %5, align 8
  %10 = load ptr, ptr %6, align 8, !tbaa !41
  %11 = icmp eq ptr %10, null
  br i1 %11, label %12, label %14

12:                                               ; preds = %3
  %13 = load ptr, ptr %7, align 8, !tbaa !41
  store ptr %13, ptr %4, align 8
  br label %34

14:                                               ; preds = %3
  %15 = load ptr, ptr %7, align 8, !tbaa !41
  %16 = icmp eq ptr %15, null
  br i1 %16, label %17, label %19

17:                                               ; preds = %14
  %18 = load ptr, ptr %6, align 8, !tbaa !41
  store ptr %18, ptr %4, align 8
  br label %34

19:                                               ; preds = %14
  %20 = load ptr, ptr %6, align 8, !tbaa !41
  %21 = load ptr, ptr %7, align 8, !tbaa !41
  %22 = icmp eq ptr %20, %21
  br i1 %22, label %23, label %25

23:                                               ; preds = %19
  %24 = load ptr, ptr %6, align 8, !tbaa !41
  store ptr %24, ptr %4, align 8
  br label %34

25:                                               ; preds = %19
  call void @llvm.lifetime.start.p0(i64 8, ptr %8) #3
  %26 = getelementptr inbounds nuw %class.dependency_manager, ptr %9, i32 0, i32 1
  %27 = load ptr, ptr %26, align 8, !tbaa !88
  %28 = call noundef ptr @_ZN25scoped_dependency_managerIPvE6config9allocator8allocateEm(ptr noundef nonnull align 8 dereferenceable(40) %27, i64 noundef 24)
  store ptr %28, ptr %8, align 8, !tbaa !55
  %29 = load ptr, ptr %6, align 8, !tbaa !41
  call void @_ZN18dependency_managerIN25scoped_dependency_managerIPvE6configEE7inc_refEPNS4_10dependencyE(ptr noundef nonnull align 8 dereferenceable(24) %9, ptr noundef %29)
  %30 = load ptr, ptr %7, align 8, !tbaa !41
  call void @_ZN18dependency_managerIN25scoped_dependency_managerIPvE6configEE7inc_refEPNS4_10dependencyE(ptr noundef nonnull align 8 dereferenceable(24) %9, ptr noundef %30)
  %31 = load ptr, ptr %8, align 8, !tbaa !55
  %32 = load ptr, ptr %6, align 8, !tbaa !41
  %33 = load ptr, ptr %7, align 8, !tbaa !41
  call void @_ZN18dependency_managerIN25scoped_dependency_managerIPvE6configEE4joinC2EPNS4_10dependencyES7_(ptr noundef nonnull align 8 dereferenceable(24) %31, ptr noundef %32, ptr noundef %33)
  store ptr %31, ptr %4, align 8
  call void @llvm.lifetime.end.p0(i64 8, ptr %8) #3
  br label %34

34:                                               ; preds = %25, %23, %17, %12
  %35 = load ptr, ptr %4, align 8
  ret ptr %35
}

; Function Attrs: mustprogress uwtable
define linkonce_odr hidden noundef ptr @_ZN25scoped_dependency_managerIPvE7mk_joinEPN18dependency_managerINS1_6configEE10dependencyES6_(ptr noundef nonnull align 8 dereferenceable(72) %0, ptr noundef %1, ptr noundef %2) #4 comdat align 2 {
  %4 = alloca ptr, align 8
  %5 = alloca ptr, align 8
  %6 = alloca ptr, align 8
  store ptr %0, ptr %4, align 8, !tbaa !29
  store ptr %1, ptr %5, align 8, !tbaa !41
  store ptr %2, ptr %6, align 8, !tbaa !41
  %7 = load ptr, ptr %4, align 8
  %8 = getelementptr inbounds nuw %class.scoped_dependency_manager, ptr %7, i32 0, i32 2
  %9 = load ptr, ptr %5, align 8, !tbaa !41
  %10 = load ptr, ptr %6, align 8, !tbaa !41
  %11 = call noundef ptr @_ZN18dependency_managerIN25scoped_dependency_managerIPvE6configEE7mk_joinEPNS4_10dependencyES6_(ptr noundef nonnull align 8 dereferenceable(24) %8, ptr noundef %9, ptr noundef %10)
  ret ptr %11
}

; Function Attrs: mustprogress nounwind uwtable
define linkonce_odr hidden noundef zeroext i1 @_ZNK11ext_numeral11is_infiniteEv(ptr noundef nonnull align 8 dereferenceable(40) %0) #5 comdat align 2 {
  %2 = alloca ptr, align 8
  store ptr %0, ptr %2, align 8, !tbaa !3
  %3 = load ptr, ptr %2, align 8
  %4 = getelementptr inbounds nuw %class.ext_numeral, ptr %3, i32 0, i32 0
  %5 = load i32, ptr %4, align 8, !tbaa !8
  %6 = icmp ne i32 %5, 1
  ret i1 %6
}

; Function Attrs: mustprogress uwtable
define hidden noundef nonnull align 8 dereferenceable(112) ptr @_ZN12old_intervalpLERKS_(ptr noundef nonnull align 8 dereferenceable(112) %0, ptr noundef nonnull align 8 dereferenceable(112) %1) #4 align 2 {
  %3 = alloca ptr, align 8
  %4 = alloca ptr, align 8
  store ptr %0, ptr %3, align 8, !tbaa !27
  store ptr %1, ptr %4, align 8, !tbaa !27
  %5 = load ptr, ptr %3, align 8
  %6 = load ptr, ptr %4, align 8, !tbaa !27
  %7 = getelementptr inbounds nuw %class.old_interval, ptr %6, i32 0, i32 1
  %8 = getelementptr inbounds nuw %class.old_interval, ptr %5, i32 0, i32 1
  %9 = call noundef nonnull align 8 dereferenceable(40) ptr @_ZN11ext_numeralpLERKS_(ptr noundef nonnull align 8 dereferenceable(40) %8, ptr noundef nonnull align 8 dereferenceable(40) %7)
  %10 = load ptr, ptr %4, align 8, !tbaa !27
  %11 = getelementptr inbounds nuw %class.old_interval, ptr %10, i32 0, i32 2
  %12 = getelementptr inbounds nuw %class.old_interval, ptr %5, i32 0, i32 2
  %13 = call noundef nonnull align 8 dereferenceable(40) ptr @_ZN11ext_numeralpLERKS_(ptr noundef nonnull align 8 dereferenceable(40) %12, ptr noundef nonnull align 8 dereferenceable(40) %11)
  %14 = load ptr, ptr %4, align 8, !tbaa !27
  %15 = getelementptr inbounds nuw %class.old_interval, ptr %14, i32 0, i32 3
  %16 = load i8, ptr %15, align 8, !tbaa !31, !range !39, !noundef !40
  %17 = trunc i8 %16 to i1
  %18 = zext i1 %17 to i32
  %19 = getelementptr inbounds nuw %class.old_interval, ptr %5, i32 0, i32 3
  %20 = load i8, ptr %19, align 8, !tbaa !31, !range !39, !noundef !40
  %21 = trunc i8 %20 to i1
  %22 = zext i1 %21 to i32
  %23 = or i32 %22, %18
  %24 = icmp ne i32 %23, 0
  %25 = zext i1 %24 to i8
  store i8 %25, ptr %19, align 8, !tbaa !31
  %26 = load ptr, ptr %4, align 8, !tbaa !27
  %27 = getelementptr inbounds nuw %class.old_interval, ptr %26, i32 0, i32 4
  %28 = load i8, ptr %27, align 1, !tbaa !35, !range !39, !noundef !40
  %29 = trunc i8 %28 to i1
  %30 = zext i1 %29 to i32
  %31 = getelementptr inbounds nuw %class.old_interval, ptr %5, i32 0, i32 4
  %32 = load i8, ptr %31, align 1, !tbaa !35, !range !39, !noundef !40
  %33 = trunc i8 %32 to i1
  %34 = zext i1 %33 to i32
  %35 = or i32 %34, %30
  %36 = icmp ne i32 %35, 0
  %37 = zext i1 %36 to i8
  store i8 %37, ptr %31, align 1, !tbaa !35
  %38 = getelementptr inbounds nuw %class.old_interval, ptr %5, i32 0, i32 1
  %39 = call noundef zeroext i1 @_ZNK11ext_numeral11is_infiniteEv(ptr noundef nonnull align 8 dereferenceable(40) %38)
  br i1 %39, label %40, label %41

40:                                               ; preds = %2
  br label %50

41:                                               ; preds = %2
  %42 = getelementptr inbounds nuw %class.old_interval, ptr %5, i32 0, i32 0
  %43 = load ptr, ptr %42, align 8, !tbaa !42
  %44 = getelementptr inbounds nuw %class.old_interval, ptr %5, i32 0, i32 5
  %45 = load ptr, ptr %44, align 8, !tbaa !36
  %46 = load ptr, ptr %4, align 8, !tbaa !27
  %47 = getelementptr inbounds nuw %class.old_interval, ptr %46, i32 0, i32 5
  %48 = load ptr, ptr %47, align 8, !tbaa !36
  %49 = call noundef ptr @_ZN25scoped_dependency_managerIPvE7mk_joinEPN18dependency_managerINS1_6configEE10dependencyES6_(ptr noundef nonnull align 8 dereferenceable(72) %43, ptr noundef %45, ptr noundef %48)
  br label %50

50:                                               ; preds = %41, %40
  %51 = phi ptr [ null, %40 ], [ %49, %41 ]
  %52 = getelementptr inbounds nuw %class.old_interval, ptr %5, i32 0, i32 5
  store ptr %51, ptr %52, align 8, !tbaa !36
  %53 = getelementptr inbounds nuw %class.old_interval, ptr %5, i32 0, i32 2
  %54 = call noundef zeroext i1 @_ZNK11ext_numeral11is_infiniteEv(ptr noundef nonnull align 8 dereferenceable(40) %53)
  br i1 %54, label %55, label %56

55:                                               ; preds = %50
  br label %65

56:                                               ; preds = %50
  %57 = getelementptr inbounds nuw %class.old_interval, ptr %5, i32 0, i32 0
  %58 = load ptr, ptr %57, align 8, !tbaa !42
  %59 = getelementptr inbounds nuw %class.old_interval, ptr %5, i32 0, i32 6
  %60 = load ptr, ptr %59, align 8, !tbaa !37
  %61 = load ptr, ptr %4, align 8, !tbaa !27
  %62 = getelementptr inbounds nuw %class.old_interval, ptr %61, i32 0, i32 6
  %63 = load ptr, ptr %62, align 8, !tbaa !37
  %64 = call noundef ptr @_ZN25scoped_dependency_managerIPvE7mk_joinEPN18dependency_managerINS1_6configEE10dependencyES6_(ptr noundef nonnull align 8 dereferenceable(72) %58, ptr noundef %60, ptr noundef %63)
  br label %65

65:                                               ; preds = %56, %55
  %66 = phi ptr [ null, %55 ], [ %64, %56 ]
  %67 = getelementptr inbounds nuw %class.old_interval, ptr %5, i32 0, i32 6
  store ptr %66, ptr %67, align 8, !tbaa !37
  ret ptr %5
}