; Function Attrs: mustprogress uwtable
define hidden noundef nonnull align 8 dereferenceable(112) ptr @_ZN12old_intervalpLERKS_(ptr noundef nonnull returned align 8 dereferenceable(112) %0, ptr noundef nonnull align 8 dereferenceable(112) %1) local_unnamed_addr #3 align 2 {
  %3 = getelementptr inbounds nuw i8, ptr %1, i64 8
  %4 = getelementptr inbounds nuw i8, ptr %0, i64 8
  %5 = tail call noundef nonnull align 8 dereferenceable(40) ptr @_ZN11ext_numeralpLERKS_(ptr noundef nonnull align 8 dereferenceable(40) %4, ptr noundef nonnull align 8 dereferenceable(40) %3)
  %6 = getelementptr inbounds nuw i8, ptr %1, i64 48
  %7 = getelementptr inbounds nuw i8, ptr %0, i64 48
  %8 = tail call noundef nonnull align 8 dereferenceable(40) ptr @_ZN11ext_numeralpLERKS_(ptr noundef nonnull align 8 dereferenceable(40) %7, ptr noundef nonnull align 8 dereferenceable(40) %6)
  %9 = getelementptr inbounds nuw i8, ptr %1, i64 88
  %10 = load i8, ptr %9, align 8, !tbaa !32, !range !39, !noundef !40
  %11 = getelementptr inbounds nuw i8, ptr %0, i64 88
  %12 = load i8, ptr %11, align 8, !tbaa !32, !range !39, !noundef !40
  %13 = or i8 %12, %10
  store i8 %13, ptr %11, align 8, !tbaa !32
  %14 = getelementptr inbounds nuw i8, ptr %1, i64 89
  %15 = load i8, ptr %14, align 1, !tbaa !36, !range !39, !noundef !40
  %16 = getelementptr inbounds nuw i8, ptr %0, i64 89
  %17 = load i8, ptr %16, align 1, !tbaa !36, !range !39, !noundef !40
  %18 = or i8 %17, %15
  store i8 %18, ptr %16, align 1, !tbaa !36
  %19 = load i32, ptr %4, align 8, !tbaa !3
  %.not = icmp eq i32 %19, 1
  br i1 %.not, label %20, label %_ZN25scoped_dependency_managerIPvE7mk_joinEPN18dependency_managerINS1_6configEE10dependencyES6_.exit

20:                                               ; preds = %2
  %21 = load ptr, ptr %0, align 8, !tbaa !41
  %22 = getelementptr inbounds nuw i8, ptr %0, i64 96
  %23 = load ptr, ptr %22, align 8, !tbaa !37
  %24 = getelementptr inbounds nuw i8, ptr %1, i64 96
  %25 = load ptr, ptr %24, align 8, !tbaa !37
  %26 = icmp eq ptr %23, null
  br i1 %26, label %_ZN25scoped_dependency_managerIPvE7mk_joinEPN18dependency_managerINS1_6configEE10dependencyES6_.exit, label %27

27:                                               ; preds = %20
  %28 = icmp eq ptr %25, null
  %29 = icmp eq ptr %23, %25
  %or.cond.i.i = or i1 %28, %29
  br i1 %or.cond.i.i, label %_ZN25scoped_dependency_managerIPvE7mk_joinEPN18dependency_managerINS1_6configEE10dependencyES6_.exit, label %_ZN18dependency_managerIN25scoped_dependency_managerIPvE6configEE7inc_refEPNS4_10dependencyE.exit17.i.i

_ZN18dependency_managerIN25scoped_dependency_managerIPvE6configEE7inc_refEPNS4_10dependencyE.exit17.i.i: ; preds = %27
  %30 = getelementptr inbounds nuw i8, ptr %21, i64 56
  %31 = load ptr, ptr %30, align 8, !tbaa !42
  %32 = tail call noundef ptr @_ZN6region8allocateEm(ptr noundef nonnull align 8 dereferenceable(40) %31, i64 noundef 24)
  %33 = load i32, ptr %23, align 4
  %34 = add i32 %33, 1
  %35 = and i32 %34, 1073741823
  %36 = and i32 %33, -1073741824
  %37 = or disjoint i32 %35, %36
  store i32 %37, ptr %23, align 4
  %38 = load i32, ptr %25, align 4
  %39 = add i32 %38, 1
  %40 = and i32 %39, 1073741823
  %41 = and i32 %38, -1073741824
  %42 = or disjoint i32 %40, %41
  store i32 %42, ptr %25, align 4
  store i32 0, ptr %32, align 4
  %43 = getelementptr inbounds nuw i8, ptr %32, i64 8
  store ptr %23, ptr %43, align 8, !tbaa !50
  %44 = getelementptr inbounds nuw i8, ptr %32, i64 16
  store ptr %25, ptr %44, align 8, !tbaa !50
  br label %_ZN25scoped_dependency_managerIPvE7mk_joinEPN18dependency_managerINS1_6configEE10dependencyES6_.exit

_ZN25scoped_dependency_managerIPvE7mk_joinEPN18dependency_managerINS1_6configEE10dependencyES6_.exit: ; preds = %_ZN18dependency_managerIN25scoped_dependency_managerIPvE6configEE7inc_refEPNS4_10dependencyE.exit17.i.i, %27, %20, %2
  %45 = phi ptr [ null, %2 ], [ %32, %_ZN18dependency_managerIN25scoped_dependency_managerIPvE6configEE7inc_refEPNS4_10dependencyE.exit17.i.i ], [ %25, %20 ], [ %23, %27 ]
  %46 = getelementptr inbounds nuw i8, ptr %0, i64 96
  store ptr %45, ptr %46, align 8, !tbaa !37
  %47 = load i32, ptr %7, align 8, !tbaa !3
  %.not11 = icmp eq i32 %47, 1
  br i1 %.not11, label %48, label %_ZN25scoped_dependency_managerIPvE7mk_joinEPN18dependency_managerINS1_6configEE10dependencyES6_.exit10

48:                                               ; preds = %_ZN25scoped_dependency_managerIPvE7mk_joinEPN18dependency_managerINS1_6configEE10dependencyES6_.exit
  %49 = load ptr, ptr %0, align 8, !tbaa !41
  %50 = getelementptr inbounds nuw i8, ptr %0, i64 104
  %51 = load ptr, ptr %50, align 8, !tbaa !38
  %52 = getelementptr inbounds nuw i8, ptr %1, i64 104
  %53 = load ptr, ptr %52, align 8, !tbaa !38
  %54 = icmp eq ptr %51, null
  br i1 %54, label %_ZN25scoped_dependency_managerIPvE7mk_joinEPN18dependency_managerINS1_6configEE10dependencyES6_.exit10, label %55

55:                                               ; preds = %48
  %56 = icmp eq ptr %53, null
  %57 = icmp eq ptr %51, %53
  %or.cond.i.i7 = or i1 %56, %57
  br i1 %or.cond.i.i7, label %_ZN25scoped_dependency_managerIPvE7mk_joinEPN18dependency_managerINS1_6configEE10dependencyES6_.exit10, label %_ZN18dependency_managerIN25scoped_dependency_managerIPvE6configEE7inc_refEPNS4_10dependencyE.exit17.i.i8

_ZN18dependency_managerIN25scoped_dependency_managerIPvE6configEE7inc_refEPNS4_10dependencyE.exit17.i.i8: ; preds = %55
  %58 = getelementptr inbounds nuw i8, ptr %49, i64 56
  %59 = load ptr, ptr %58, align 8, !tbaa !42
  %60 = tail call noundef ptr @_ZN6region8allocateEm(ptr noundef nonnull align 8 dereferenceable(40) %59, i64 noundef 24)
  %61 = load i32, ptr %51, align 4
  %62 = add i32 %61, 1
  %63 = and i32 %62, 1073741823
  %64 = and i32 %61, -1073741824
  %65 = or disjoint i32 %63, %64
  store i32 %65, ptr %51, align 4
  %66 = load i32, ptr %53, align 4
  %67 = add i32 %66, 1
  %68 = and i32 %67, 1073741823
  %69 = and i32 %66, -1073741824
  %70 = or disjoint i32 %68, %69
  store i32 %70, ptr %53, align 4
  store i32 0, ptr %60, align 4
  %71 = getelementptr inbounds nuw i8, ptr %60, i64 8
  store ptr %51, ptr %71, align 8, !tbaa !50
  %72 = getelementptr inbounds nuw i8, ptr %60, i64 16
  store ptr %53, ptr %72, align 8, !tbaa !50
  br label %_ZN25scoped_dependency_managerIPvE7mk_joinEPN18dependency_managerINS1_6configEE10dependencyES6_.exit10

_ZN25scoped_dependency_managerIPvE7mk_joinEPN18dependency_managerINS1_6configEE10dependencyES6_.exit10: ; preds = %_ZN18dependency_managerIN25scoped_dependency_managerIPvE6configEE7inc_refEPNS4_10dependencyE.exit17.i.i8, %55, %48, %_ZN25scoped_dependency_managerIPvE7mk_joinEPN18dependency_managerINS1_6configEE10dependencyES6_.exit
  %73 = phi ptr [ null, %_ZN25scoped_dependency_managerIPvE7mk_joinEPN18dependency_managerINS1_6configEE10dependencyES6_.exit ], [ %60, %_ZN18dependency_managerIN25scoped_dependency_managerIPvE6configEE7inc_refEPNS4_10dependencyE.exit17.i.i8 ], [ %53, %48 ], [ %51, %55 ]
  %74 = getelementptr inbounds nuw i8, ptr %0, i64 104
  store ptr %73, ptr %74, align 8, !tbaa !38
  ret ptr %0
}